; ModuleID = '19/218.c'
source_filename = "19/218.c"
target datalayout = "e-m:e-p270:32:32-p271:32:32-p272:64:64-i64:64-f80:128-n8:16:32:64-S128"
target triple = "x86_64-pc-linux-gnu"

@.str = private unnamed_addr constant [2 x i8] c" \00", align 1

; Function Attrs: noinline nounwind uwtable
define dso_local i32 @main() #0 {
  %1 = alloca i32, align 4
  %2 = alloca i32, align 4
  %3 = alloca i32, align 4
  %4 = alloca [80 x i8], align 16
  %5 = alloca [20 x i8], align 16
  %6 = alloca [20 x i8], align 16
  %7 = alloca [20 x i8], align 16
  %8 = alloca [100 x i8], align 16
  store i32 0, i32* %1, align 4
  store i32 0, i32* %3, align 4
  %9 = bitcast [100 x i8]* %8 to i8*
  call void @llvm.memset.p0i8.i64(i8* align 16 %9, i8 0, i64 100, i1 false)
  %10 = getelementptr inbounds [80 x i8], [80 x i8]* %4, i64 0, i64 0
  %11 = call i32 (i8*, ...) bitcast (i32 (...)* @gets to i32 (i8*, ...)*)(i8* %10)
  %12 = getelementptr inbounds [20 x i8], [20 x i8]* %5, i64 0, i64 0
  %13 = call i32 (i8*, ...) bitcast (i32 (...)* @gets to i32 (i8*, ...)*)(i8* %12)
  %14 = getelementptr inbounds [20 x i8], [20 x i8]* %6, i64 0, i64 0
  %15 = call i32 (i8*, ...) bitcast (i32 (...)* @gets to i32 (i8*, ...)*)(i8* %14)
  store i32 0, i32* %2, align 4
  br label %16

16:                                               ; preds = %69, %0
  %17 = load i32, i32* %2, align 4
  %18 = sext i32 %17 to i64
  %19 = getelementptr inbounds [80 x i8], [80 x i8]* %4, i64 0, i64 %18
  %20 = load i8, i8* %19, align 1
  %21 = sext i8 %20 to i32
  %22 = icmp ne i32 %21, 0
  br i1 %22, label %23, label %72

23:                                               ; preds = %16
  %24 = load i32, i32* %2, align 4
  %25 = sext i32 %24 to i64
  %26 = getelementptr inbounds [80 x i8], [80 x i8]* %4, i64 0, i64 %25
  %27 = load i8, i8* %26, align 1
  %28 = sext i8 %27 to i32
  %29 = icmp ne i32 %28, 32
  br i1 %29, label %30, label %40

30:                                               ; preds = %23
  %31 = load i32, i32* %2, align 4
  %32 = sext i32 %31 to i64
  %33 = getelementptr inbounds [80 x i8], [80 x i8]* %4, i64 0, i64 %32
  %34 = load i8, i8* %33, align 1
  %35 = load i32, i32* %3, align 4
  %36 = sext i32 %35 to i64
  %37 = getelementptr inbounds [20 x i8], [20 x i8]* %7, i64 0, i64 %36
  store i8 %34, i8* %37, align 1
  %38 = load i32, i32* %3, align 4
  %39 = add nsw i32 %38, 1
  store i32 %39, i32* %3, align 4
  br label %40

40:                                               ; preds = %30, %23
  %41 = load i32, i32* %2, align 4
  %42 = sext i32 %41 to i64
  %43 = getelementptr inbounds [80 x i8], [80 x i8]* %4, i64 0, i64 %42
  %44 = load i8, i8* %43, align 1
  %45 = sext i8 %44 to i32
  %46 = icmp eq i32 %45, 32
  br i1 %46, label %47, label %68

47:                                               ; preds = %40
  %48 = load i32, i32* %3, align 4
  %49 = sext i32 %48 to i64
  %50 = getelementptr inbounds [20 x i8], [20 x i8]* %7, i64 0, i64 %49
  store i8 0, i8* %50, align 1
  %51 = getelementptr inbounds [20 x i8], [20 x i8]* %7, i64 0, i64 0
  %52 = getelementptr inbounds [20 x i8], [20 x i8]* %5, i64 0, i64 0
  %53 = call i32 @strcmp(i8* %51, i8* %52) #5
  %54 = icmp eq i32 %53, 0
  br i1 %54, label %55, label %61

55:                                               ; preds = %47
  %56 = getelementptr inbounds [100 x i8], [100 x i8]* %8, i64 0, i64 0
  %57 = getelementptr inbounds [20 x i8], [20 x i8]* %6, i64 0, i64 0
  %58 = call i8* @strcat(i8* %56, i8* %57) #6
  %59 = getelementptr inbounds [100 x i8], [100 x i8]* %8, i64 0, i64 0
  %60 = call i8* @strcat(i8* %59, i8* getelementptr inbounds ([2 x i8], [2 x i8]* @.str, i64 0, i64 0)) #6
  br label %67

61:                                               ; preds = %47
  %62 = getelementptr inbounds [100 x i8], [100 x i8]* %8, i64 0, i64 0
  %63 = getelementptr inbounds [20 x i8], [20 x i8]* %7, i64 0, i64 0
  %64 = call i8* @strcat(i8* %62, i8* %63) #6
  %65 = getelementptr inbounds [100 x i8], [100 x i8]* %8, i64 0, i64 0
  %66 = call i8* @strcat(i8* %65, i8* getelementptr inbounds ([2 x i8], [2 x i8]* @.str, i64 0, i64 0)) #6
  br label %67

67:                                               ; preds = %61, %55
  store i32 0, i32* %3, align 4
  br label %68

68:                                               ; preds = %67, %40
  br label %69

69:                                               ; preds = %68
  %70 = load i32, i32* %2, align 4
  %71 = add nsw i32 %70, 1
  store i32 %71, i32* %2, align 4
  br label %16

72:                                               ; preds = %16
  %73 = load i32, i32* %3, align 4
  %74 = sext i32 %73 to i64
  %75 = getelementptr inbounds [20 x i8], [20 x i8]* %7, i64 0, i64 %74
  store i8 0, i8* %75, align 1
  %76 = getelementptr inbounds [20 x i8], [20 x i8]* %7, i64 0, i64 0
  %77 = getelementptr inbounds [20 x i8], [20 x i8]* %5, i64 0, i64 0
  %78 = call i32 @strcmp(i8* %76, i8* %77) #5
  %79 = icmp eq i32 %78, 0
  br i1 %79, label %80, label %84

80:                                               ; preds = %72
  %81 = getelementptr inbounds [100 x i8], [100 x i8]* %8, i64 0, i64 0
  %82 = getelementptr inbounds [20 x i8], [20 x i8]* %6, i64 0, i64 0
  %83 = call i8* @strcat(i8* %81, i8* %82) #6
  br label %88

84:                                               ; preds = %72
  %85 = getelementptr inbounds [100 x i8], [100 x i8]* %8, i64 0, i64 0
  %86 = getelementptr inbounds [20 x i8], [20 x i8]* %7, i64 0, i64 0
  %87 = call i8* @strcat(i8* %85, i8* %86) #6
  br label %88

88:                                               ; preds = %84, %80
  %89 = getelementptr inbounds [100 x i8], [100 x i8]* %8, i64 0, i64 0
  %90 = call i32 @puts(i8* %89)
  ret i32 0
}

; Function Attrs: argmemonly nounwind willreturn
declare void @llvm.memset.p0i8.i64(i8* nocapture writeonly, i8, i64, i1 immarg) #1

declare dso_local i32 @gets(...) #2

; Function Attrs: nounwind readonly
declare dso_local i32 @strcmp(i8*, i8*) #3

; Function Attrs: nounwind
declare dso_local i8* @strcat(i8*, i8*) #4

declare dso_local i32 @puts(i8*) #2


!llvm.module.flags = !{!0}
!llvm.ident = !{!1}

!0 = !{i32 1, !"wchar_size", i32 4}
!1 = !{!"clang version 10.0.0-4ubuntu1 "}
