; ModuleID = 'source-C-CXX/18/218.c'
source_filename = "source-C-CXX/18/218.c"
target datalayout = "e-m:e-p270:32:32-p271:32:32-p272:64:64-i64:64-f80:128-n8:16:32:64-S128"
target triple = "x86_64-pc-linux-gnu"

; Function Attrs: nounwind sspstrong uwtable
define dso_local i32 @main() local_unnamed_addr #0 {
  %1 = alloca [80 x i8], align 16
  %2 = alloca [20 x i8], align 16
  %3 = alloca [20 x i8], align 16
  %4 = alloca [20 x i8], align 16
  %5 = alloca [100 x i8], align 16
  %6 = getelementptr inbounds [80 x i8], [80 x i8]* %1, i64 0, i64 0
  call void @llvm.lifetime.start.p0i8(i64 80, i8* nonnull %6) #8
  %7 = getelementptr inbounds [20 x i8], [20 x i8]* %2, i64 0, i64 0
  call void @llvm.lifetime.start.p0i8(i64 20, i8* nonnull %7) #8
  %8 = getelementptr inbounds [20 x i8], [20 x i8]* %3, i64 0, i64 0
  call void @llvm.lifetime.start.p0i8(i64 20, i8* nonnull %8) #8
  %9 = getelementptr inbounds [20 x i8], [20 x i8]* %4, i64 0, i64 0
  call void @llvm.lifetime.start.p0i8(i64 20, i8* nonnull %9) #8
  %10 = getelementptr inbounds [100 x i8], [100 x i8]* %5, i64 0, i64 0
  call void @llvm.lifetime.start.p0i8(i64 100, i8* nonnull %10) #8
  call void @llvm.memset.p0i8.i64(i8* noundef nonnull align 16 dereferenceable(100) %10, i8 0, i64 100, i1 false)
  %11 = call i32 (i8*, ...) bitcast (i32 (...)* @gets to i32 (i8*, ...)*)(i8* nonnull %6) #8
  %12 = call i32 (i8*, ...) bitcast (i32 (...)* @gets to i32 (i8*, ...)*)(i8* nonnull %7) #8
  %13 = call i32 (i8*, ...) bitcast (i32 (...)* @gets to i32 (i8*, ...)*)(i8* nonnull %8) #8
  br label %14

14:                                               ; preds = %38, %0
  %15 = phi i64 [ %40, %38 ], [ 0, %0 ]
  %16 = phi i32 [ %39, %38 ], [ 0, %0 ]
  %17 = getelementptr inbounds [80 x i8], [80 x i8]* %1, i64 0, i64 %15
  %18 = load i8, i8* %17, align 1, !tbaa !5
  switch i8 %18, label %19 [
    i8 0, label %41
    i8 32, label %23
  ]

19:                                               ; preds = %14
  %20 = sext i32 %16 to i64
  %21 = getelementptr inbounds [20 x i8], [20 x i8]* %4, i64 0, i64 %20
  store i8 %18, i8* %21, align 1, !tbaa !5
  %22 = add nsw i32 %16, 1
  br label %38

23:                                               ; preds = %14
  %24 = sext i32 %16 to i64
  %25 = getelementptr inbounds [20 x i8], [20 x i8]* %4, i64 0, i64 %24
  store i8 0, i8* %25, align 1, !tbaa !5
  %26 = call i32 @strcmp(i8* noundef nonnull %9, i8* noundef nonnull %7) #9
  %27 = icmp eq i32 %26, 0
  br i1 %27, label %28, label %33

28:                                               ; preds = %23
  %29 = call i8* @strcat(i8* noundef nonnull %10, i8* noundef nonnull %8) #8
  %30 = call i64 @strlen(i8* noundef nonnull %10)
  %31 = getelementptr [100 x i8], [100 x i8]* %5, i64 0, i64 %30
  %32 = bitcast i8* %31 to i16*
  store i16 32, i16* %32, align 1
  br label %38

33:                                               ; preds = %23
  %34 = call i8* @strcat(i8* noundef nonnull %10, i8* noundef nonnull %9) #8
  %35 = call i64 @strlen(i8* noundef nonnull %10)
  %36 = getelementptr [100 x i8], [100 x i8]* %5, i64 0, i64 %35
  %37 = bitcast i8* %36 to i16*
  store i16 32, i16* %37, align 1
  br label %38

38:                                               ; preds = %19, %28, %33
  %39 = phi i32 [ %22, %19 ], [ 0, %33 ], [ 0, %28 ]
  %40 = add nuw i64 %15, 1
  br label %14, !llvm.loop !8

41:                                               ; preds = %14
  %42 = sext i32 %16 to i64
  %43 = getelementptr inbounds [20 x i8], [20 x i8]* %4, i64 0, i64 %42
  store i8 0, i8* %43, align 1, !tbaa !5
  %44 = call i32 @strcmp(i8* noundef nonnull %9, i8* noundef nonnull %7) #9
  %45 = icmp eq i32 %44, 0
  %46 = select i1 %45, i8* %8, i8* %9
  %47 = call i8* @strcat(i8* noundef nonnull %10, i8* noundef nonnull %46) #8
  %48 = call i32 @puts(i8* nonnull %10)
  call void @llvm.lifetime.end.p0i8(i64 100, i8* nonnull %10) #8
  call void @llvm.lifetime.end.p0i8(i64 20, i8* nonnull %9) #8
  call void @llvm.lifetime.end.p0i8(i64 20, i8* nonnull %8) #8
  call void @llvm.lifetime.end.p0i8(i64 20, i8* nonnull %7) #8
  call void @llvm.lifetime.end.p0i8(i64 80, i8* nonnull %6) #8
  ret i32 0
}

; Function Attrs: argmemonly mustprogress nofree nosync nounwind willreturn
declare void @llvm.lifetime.start.p0i8(i64 immarg, i8* nocapture) #1

; Function Attrs: argmemonly mustprogress nofree nounwind willreturn writeonly
declare void @llvm.memset.p0i8.i64(i8* nocapture writeonly, i8, i64, i1 immarg) #2

declare i32 @gets(...) local_unnamed_addr #3

; Function Attrs: argmemonly mustprogress nofree nounwind readonly willreturn
declare i32 @strcmp(i8* nocapture, i8* nocapture) local_unnamed_addr #4

; Function Attrs: argmemonly mustprogress nofree nounwind willreturn
declare i8* @strcat(i8* noalias returned, i8* noalias nocapture readonly) local_unnamed_addr #5

; Function Attrs: nofree nounwind
declare noundef i32 @puts(i8* nocapture noundef readonly) local_unnamed_addr #6

; Function Attrs: argmemonly mustprogress nofree nosync nounwind willreturn
declare void @llvm.lifetime.end.p0i8(i64 immarg, i8* nocapture) #1

; Function Attrs: argmemonly nofree nounwind readonly willreturn
declare i64 @strlen(i8* nocapture) local_unnamed_addr #7


!llvm.module.flags = !{!0, !1, !2, !3}
!llvm.ident = !{!4}

!0 = !{i32 1, !"wchar_size", i32 4}
!1 = !{i32 7, !"PIC Level", i32 2}
!2 = !{i32 7, !"PIE Level", i32 2}
!3 = !{i32 7, !"uwtable", i32 1}
!4 = !{!"clang version 13.0.0"}
!5 = !{!6, !6, i64 0}
!6 = !{!"omnipotent char", !7, i64 0}
!7 = !{!"Simple C/C++ TBAA"}
!8 = distinct !{!8, !9}
!9 = !{!"llvm.loop.mustprogress"}
